; Function Attrs: mustprogress uwtable
define hidden void @_ZNK2cv13AKAZEFeatures29Compute_Keypoints_OrientationERSt6vectorINS_8KeyPointESaIS2_EE(ptr noundef nonnull align 8 dereferenceable(440) %0, ptr noundef nonnull align 8 dereferenceable(24) %1) local_unnamed_addr #3 align 2 personality ptr @__gxx_personality_v0 {
  %3 = alloca %"class.cv::utils::trace::details::Region", align 8
  %4 = alloca %"class.cv::Range", align 4
  %5 = alloca %"class.cv::ComputeKeypointOrientation", align 8
  call void @_ZN2cv5utils5trace7details6RegionC1ERKNS3_21LocationStaticStorageE(ptr noundef nonnull align 8 dereferenceable(12) %3, ptr noundef nonnull align 8 dereferenceable(32) @_ZZNK2cv13AKAZEFeatures29Compute_Keypoints_OrientationERSt6vectorINS_8KeyPointESaIS2_EEE26__cv_trace_location_fn1470)
  %6 = getelementptr inbounds i8, ptr %1, i64 8
  %7 = load ptr, ptr %6, align 8
  %8 = load ptr, ptr %1, align 8
  %9 = ptrtoint ptr %7 to i64
  %10 = ptrtoint ptr %8 to i64
  %11 = sub i64 %9, %10
  %12 = sdiv exact i64 %11, 28
  %13 = trunc i64 %12 to i32
  store i32 0, ptr %4, align 4
  %14 = getelementptr inbounds i8, ptr %4, i64 4
  store i32 %13, ptr %14, align 4
  %15 = getelementptr inbounds i8, ptr %0, i64 72
  store ptr getelementptr inbounds inrange(-16, 24) (i8, ptr @_ZTVN2cv26ComputeKeypointOrientationE, i64 16), ptr %5, align 8
  %16 = getelementptr inbounds i8, ptr %5, i64 8
  store ptr %1, ptr %16, align 8
  %17 = getelementptr inbounds i8, ptr %5, i64 16
  store ptr %15, ptr %17, align 8
  invoke void @_ZN2cv13parallel_for_ERKNS_5RangeERKNS_16ParallelLoopBodyEd(ptr noundef nonnull align 4 dereferenceable(8) %4, ptr noundef nonnull align 8 dereferenceable(8) %5, double noundef -1.000000e+00)
          to label %18 unwind label %25

18:                                               ; preds = %2
  call void @_ZN2cv16ParallelLoopBodyD2Ev(ptr noundef nonnull align 8 dereferenceable(8) %5) #21
  %19 = getelementptr inbounds i8, ptr %3, i64 8
  %20 = load i32, ptr %19, align 8
  %.not.i = icmp eq i32 %20, 0
  br i1 %.not.i, label %_ZN2cv5utils5trace7details6RegionD2Ev.exit, label %21

21:                                               ; preds = %18
  invoke void @_ZN2cv5utils5trace7details6Region7destroyEv(ptr noundef nonnull align 8 dereferenceable(12) %3)
          to label %_ZN2cv5utils5trace7details6RegionD2Ev.exit unwind label %22

22:                                               ; preds = %21
  %23 = landingpad { ptr, i32 }
          catch ptr null
  %24 = extractvalue { ptr, i32 } %23, 0
  call void @__clang_call_terminate(ptr %24) #25
  unreachable

_ZN2cv5utils5trace7details6RegionD2Ev.exit:       ; preds = %18, %21
  ret void

25:                                               ; preds = %2
  %26 = landingpad { ptr, i32 }
          cleanup
  call void @_ZN2cv16ParallelLoopBodyD2Ev(ptr noundef nonnull align 8 dereferenceable(8) %5) #21
  call void @_ZN2cv5utils5trace7details6RegionD2Ev(ptr noundef nonnull align 8 dereferenceable(12) %3) #21
  resume { ptr, i32 } %26
}